; Function Attrs: mustprogress nofree nounwind uwtable
define hidden noundef zeroext i1 @_ZN9DwarfFile21MarkedDwarfFileReader11read_leb128EPmab(ptr nocapture noundef nonnull align 8 dereferenceable(40) %0, ptr nocapture noundef %1, i8 noundef signext %2, i1 noundef zeroext %3) local_unnamed_addr #3 align 2 {
  %5 = alloca i8, align 1
  store i64 0, ptr %1, align 8
  %6 = getelementptr inbounds i8, ptr %0, i64 24
  %7 = getelementptr inbounds i8, ptr %0, i64 8
  br label %8

8:                                                ; preds = %4, %14
  %.021 = phi i32 [ 0, %4 ], [ %24, %14 ]
  %.0 = phi i8 [ 0, %4 ], [ %15, %14 ]
  %9 = load i64, ptr %6, align 8
  %10 = add nsw i64 %9, 1
  store i64 %10, ptr %6, align 8
  %11 = load ptr, ptr %7, align 8
  %12 = call i64 @fread(ptr noundef nonnull %5, i64 noundef 1, i64 noundef 1, ptr noundef %11)
  %13 = icmp eq i64 %12, 1
  br i1 %13, label %14, label %.loopexit

14:                                               ; preds = %8
  %15 = add nuw nsw i8 %.0, 1
  %16 = load i8, ptr %5, align 1
  %17 = and i8 %16, 127
  %18 = zext nneg i8 %17 to i32
  %19 = and i32 %.021, 255
  %20 = shl i32 %18, %19
  %21 = zext i32 %20 to i64
  %22 = load i64, ptr %1, align 8
  %23 = or i64 %22, %21
  store i64 %23, ptr %1, align 8
  %24 = add nuw nsw i32 %19, 7
  %25 = icmp slt i8 %16, 0
  %26 = icmp ult i8 %.0, 7
  %or.cond5 = select i1 %25, i1 %26, i1 false
  br i1 %or.cond5, label %8, label %27, !llvm.loop !15

27:                                               ; preds = %14
  %28 = icmp ugt i8 %.0, 7
  br i1 %28, label %.loopexit, label %29

29:                                               ; preds = %27
  %.not = icmp ne i8 %2, -1
  %30 = icmp sge i8 %.0, %2
  %or.cond29 = select i1 %.not, i1 %30, i1 false
  br i1 %or.cond29, label %.loopexit, label %31

31:                                               ; preds = %29
  %32 = and i32 %24, 255
  %33 = icmp ugt i32 %32, 63
  %not. = xor i1 %3, true
  %or.cond = select i1 %not., i1 true, i1 %33
  %34 = and i8 %16, 64
  %.not27 = icmp eq i8 %34, 0
  %or.cond30 = or i1 %or.cond, %.not27
  br i1 %or.cond30, label %.loopexit, label %35

35:                                               ; preds = %31
  %36 = zext nneg i32 %32 to i64
  %37 = shl nsw i64 -1, %36
  %38 = or i64 %23, %37
  store i64 %38, ptr %1, align 8
  br label %.loopexit

.loopexit:                                        ; preds = %8, %31, %35, %27, %29
  %.023 = phi i1 [ false, %29 ], [ false, %27 ], [ true, %35 ], [ true, %31 ], [ false, %8 ]
  ret i1 %.023
}